target datalayout = "e-m:e-p270:32:32-p271:32:32-p272:64:64-i64:64-i128:128-f80:128-n8:16:32:64-S128"
target triple = "x86_64-pc-linux-gnu"

%"struct.duckdb_miniz::mz_zip_archive" = type { i64, i64, i32, i32, i32, i32, i64, ptr, ptr, ptr, ptr, ptr, ptr, ptr, ptr, ptr }

; Function Attrs: alwaysinline mustprogress nounwind uwtable
define internal noundef i32 @_ZN12duckdb_minizL16mz_zip_set_errorEPNS_14mz_zip_archiveENS_12mz_zip_errorE(ptr noundef %0, i32 noundef %1) #8 {
  %3 = alloca ptr, align 8
  %4 = alloca i32, align 4
  store ptr %0, ptr %3, align 8, !tbaa !19
  store i32 %1, ptr %4, align 4, !tbaa !242
  %5 = load ptr, ptr %3, align 8, !tbaa !19
  %6 = icmp ne ptr %5, null
  br i1 %6, label %7, label %11

7:                                                ; preds = %2
  %8 = load i32, ptr %4, align 4, !tbaa !242
  %9 = load ptr, ptr %3, align 8, !tbaa !19
  %10 = getelementptr inbounds nuw %"struct.duckdb_miniz::mz_zip_archive", ptr %9, i32 0, i32 5
  store i32 %8, ptr %10, align 4, !tbaa !236
  br label %11

11:                                               ; preds = %7, %2
  ret i32 0
}

; Function Attrs: mustprogress uwtable
define noundef i64 @_ZN12duckdb_miniz24mz_zip_read_archive_dataEPNS_14mz_zip_archiveEmPvm(ptr noundef %0, i64 noundef %1, ptr noundef %2, i64 noundef %3) #5 {
  %5 = alloca i64, align 8
  %6 = alloca ptr, align 8
  %7 = alloca i64, align 8
  %8 = alloca ptr, align 8
  %9 = alloca i64, align 8
  store ptr %0, ptr %6, align 8, !tbaa !19
  store i64 %1, ptr %7, align 8, !tbaa !3
  store ptr %2, ptr %8, align 8, !tbaa !19
  store i64 %3, ptr %9, align 8, !tbaa !3
  %10 = load ptr, ptr %6, align 8, !tbaa !19
  %11 = icmp ne ptr %10, null
  br i1 %11, label %12, label %25

12:                                               ; preds = %4
  %13 = load ptr, ptr %6, align 8, !tbaa !19
  %14 = getelementptr inbounds nuw %"struct.duckdb_miniz::mz_zip_archive", ptr %13, i32 0, i32 15
  %15 = load ptr, ptr %14, align 8, !tbaa !227
  %16 = icmp ne ptr %15, null
  br i1 %16, label %17, label %25

17:                                               ; preds = %12
  %18 = load ptr, ptr %8, align 8, !tbaa !19
  %19 = icmp ne ptr %18, null
  br i1 %19, label %20, label %25

20:                                               ; preds = %17
  %21 = load ptr, ptr %6, align 8, !tbaa !19
  %22 = getelementptr inbounds nuw %"struct.duckdb_miniz::mz_zip_archive", ptr %21, i32 0, i32 11
  %23 = load ptr, ptr %22, align 8, !tbaa !239
  %24 = icmp ne ptr %23, null
  br i1 %24, label %29, label %25

25:                                               ; preds = %20, %17, %12, %4
  %26 = load ptr, ptr %6, align 8, !tbaa !19
  %27 = call noundef i32 @_ZN12duckdb_minizL16mz_zip_set_errorEPNS_14mz_zip_archiveENS_12mz_zip_errorE(ptr noundef %26, i32 noundef 24)
  %28 = sext i32 %27 to i64
  store i64 %28, ptr %5, align 8
  br label %40

29:                                               ; preds = %20
  %30 = load ptr, ptr %6, align 8, !tbaa !19
  %31 = getelementptr inbounds nuw %"struct.duckdb_miniz::mz_zip_archive", ptr %30, i32 0, i32 11
  %32 = load ptr, ptr %31, align 8, !tbaa !239
  %33 = load ptr, ptr %6, align 8, !tbaa !19
  %34 = getelementptr inbounds nuw %"struct.duckdb_miniz::mz_zip_archive", ptr %33, i32 0, i32 14
  %35 = load ptr, ptr %34, align 8, !tbaa !254
  %36 = load i64, ptr %7, align 8, !tbaa !3
  %37 = load ptr, ptr %8, align 8, !tbaa !19
  %38 = load i64, ptr %9, align 8, !tbaa !3
  %39 = call noundef i64 %32(ptr noundef %35, i64 noundef %36, ptr noundef %37, i64 noundef %38)
  store i64 %39, ptr %5, align 8
  br label %40

40:                                               ; preds = %29, %25
  %41 = load i64, ptr %5, align 8
  ret i64 %41
}