; Function Attrs: mustprogress uwtable
define noundef i64 @_ZN12duckdb_miniz24mz_zip_read_archive_dataEPNS_14mz_zip_archiveEmPvm(ptr noundef captures(address_is_null) %0, i64 noundef %1, ptr noundef %2, i64 noundef %3) local_unnamed_addr #8 {
  %.not = icmp eq ptr %0, null
  br i1 %.not, label %_ZN12duckdb_minizL16mz_zip_set_errorEPNS_14mz_zip_archiveENS_12mz_zip_errorE.exit, label %5

5:                                                ; preds = %4
  %6 = getelementptr inbounds nuw i8, ptr %0, i64 104
  %7 = load ptr, ptr %6, align 8, !tbaa !204
  %8 = icmp ne ptr %7, null
  %9 = icmp ne ptr %2, null
  %or.cond = and i1 %9, %8
  br i1 %or.cond, label %10, label %13

10:                                               ; preds = %5
  %11 = getelementptr inbounds nuw i8, ptr %0, i64 72
  %12 = load ptr, ptr %11, align 8, !tbaa !217
  %.not14 = icmp eq ptr %12, null
  br i1 %.not14, label %13, label %15

13:                                               ; preds = %10, %5
  %14 = getelementptr inbounds nuw i8, ptr %0, i64 28
  store i32 24, ptr %14, align 4, !tbaa !213
  br label %_ZN12duckdb_minizL16mz_zip_set_errorEPNS_14mz_zip_archiveENS_12mz_zip_errorE.exit

15:                                               ; preds = %10
  %16 = getelementptr inbounds nuw i8, ptr %0, i64 96
  %17 = load ptr, ptr %16, align 8, !tbaa !228
  %18 = tail call noundef i64 %12(ptr noundef %17, i64 noundef %1, ptr noundef nonnull %2, i64 noundef %3)
  br label %_ZN12duckdb_minizL16mz_zip_set_errorEPNS_14mz_zip_archiveENS_12mz_zip_errorE.exit

_ZN12duckdb_minizL16mz_zip_set_errorEPNS_14mz_zip_archiveENS_12mz_zip_errorE.exit: ; preds = %13, %4, %15
  %.0 = phi i64 [ %18, %15 ], [ 0, %4 ], [ 0, %13 ]
  ret i64 %.0
}